ccopy_reg
_reconstructor
p0
(cxgboost.sklearn
XGBRegressor
p1
c__builtin__
object
p2
Ntp3
Rp4
(dp5
S'reg_alpha'
p6
I0
sS'colsample_bytree'
p7
I1
sS'silent'
p8
I01
sS'colsample_bylevel'
p9
I1
sS'scale_pos_weight'
p10
I1
sS'_Booster'
p11
NsS'learning_rate'
p12
F0.1
sS'missing'
p13
Fnan
sS'max_delta_step'
p14
I0
sS'nthread'
p15
I-1
sS'min_child_weight'
p16
I1
sS'n_estimators'
p17
I100
sS'subsample'
p18
I1
sS'reg_lambda'
p19
I1
sS'seed'
p20
I0
sS'base_score'
p21
F0.5
sS'objective'
p22
S'reg:linear'
p23
sS'max_depth'
p24
I3
sS'gamma'
p25
I0
sb.